target datalayout = "e-m:e-p270:32:32-p271:32:32-p272:64:64-i64:64-i128:128-f80:128-n8:16:32:64-S128"
target triple = "x86_64-pc-linux-gnu"

%"class.std::basic_ostream" = type { ptr, %"class.std::basic_ios" }
%"class.std::basic_ios" = type { %"class.std::ios_base", ptr, i8, i8, ptr, ptr, ptr, ptr }
%"class.std::ios_base" = type { ptr, i64, i64, i32, i32, i32, ptr, %"struct.std::ios_base::_Words", [8 x %"struct.std::ios_base::_Words"], i32, ptr, %"class.std::locale" }
%"struct.std::ios_base::_Words" = type { ptr, i64 }
%"class.std::locale" = type { ptr }
%"class.std::basic_string_view" = type { i64, ptr }
%"class.sentencepiece::util::Status" = type { %"class.std::unique_ptr" }
%"class.std::unique_ptr" = type { %"struct.std::__uniq_ptr_data" }
%"struct.std::__uniq_ptr_data" = type { %"class.std::__uniq_ptr_impl" }
%"class.std::__uniq_ptr_impl" = type { %"class.std::tuple" }
%"class.std::tuple" = type { %"struct.std::_Tuple_impl" }
%"struct.std::_Tuple_impl" = type { %"struct.std::_Head_base.1" }
%"struct.std::_Head_base.1" = type { ptr }
%"class.sentencepiece::error::Die" = type { i8 }

@.str = private unnamed_addr constant [15 x i8] c"src/builder.cc\00", align 1
@.str.1 = private unnamed_addr constant [2 x i8] c"(\00", align 1
@_ZSt4cerr = external global %"class.std::basic_ostream", align 8
@.str.6 = private unnamed_addr constant [3 x i8] c") \00", align 1
@.str.7 = private unnamed_addr constant [5 x i8] c"LOG(\00", align 1
@.str.22 = private unnamed_addr constant [6 x i8] c"ERROR\00", align 1
@_ZN13sentencepiece10normalizer12_GLOBAL__N_113kCompileErrorE = internal constant %"class.std::basic_string_view" { i64 69, ptr @.str.47 }, align 8

; Function Attrs: mustprogress nounwind uwtable
define linkonce_odr noundef i64 @_ZNKSt17basic_string_viewIcSt11char_traitsIcEE4sizeEv(ptr noundef nonnull align 8 dereferenceable(16) %0) #5 comdat align 2 {
  %2 = alloca ptr, align 8
  store ptr %0, ptr %2, align 8
  %3 = load ptr, ptr %2, align 8
  %4 = getelementptr inbounds %"class.std::basic_string_view", ptr %3, i32 0, i32 0
  %5 = load i64, ptr %4, align 8
  ret i64 %5
}

; Function Attrs: mustprogress nounwind uwtable
define linkonce_odr noundef ptr @_ZNKSt17basic_string_viewIcSt11char_traitsIcEE4dataEv(ptr noundef nonnull align 8 dereferenceable(16) %0) #5 comdat align 2 {
  %2 = alloca ptr, align 8
  store ptr %0, ptr %2, align 8
  %3 = load ptr, ptr %2, align 8
  %4 = getelementptr inbounds %"class.std::basic_string_view", ptr %3, i32 0, i32 1
  %5 = load ptr, ptr %4, align 8
  ret ptr %5
}

; Function Attrs: mustprogress uwtable
define linkonce_odr void @_ZN13sentencepiece4util8OkStatusEv(ptr dead_on_unwind noalias writable sret(%"class.sentencepiece::util::Status") align 8 %0) #4 comdat {
  %2 = alloca ptr, align 8
  store ptr %0, ptr %2, align 8
  call void @_ZN13sentencepiece4util6StatusC1Ev(ptr noundef nonnull align 8 dereferenceable(8) %0)
  ret void
}

; Function Attrs: mustprogress nounwind uwtable
define linkonce_odr noundef i32 @_ZN13sentencepiece5error3DieanERSo(ptr noundef nonnull align 1 dereferenceable(1) %0, ptr noundef nonnull align 8 dereferenceable(8) %1) #5 comdat align 2 {
  %3 = alloca ptr, align 8
  %4 = alloca ptr, align 8
  store ptr %0, ptr %3, align 8
  store ptr %1, ptr %4, align 8
  ret i32 0
}

; Function Attrs: mustprogress uwtable
define linkonce_odr noundef nonnull align 8 dereferenceable(8) ptr @_ZStlsIcSt11char_traitsIcEERSt13basic_ostreamIT_T0_ES6_St17basic_string_viewIS3_S4_E(ptr noundef nonnull align 8 dereferenceable(8) %0, i64 %1, ptr %2) #4 comdat {
  %4 = alloca %"class.std::basic_string_view", align 8
  %5 = alloca ptr, align 8
  %6 = getelementptr inbounds { i64, ptr }, ptr %4, i32 0, i32 0
  store i64 %1, ptr %6, align 8
  %7 = getelementptr inbounds { i64, ptr }, ptr %4, i32 0, i32 1
  store ptr %2, ptr %7, align 8
  store ptr %0, ptr %5, align 8
  %8 = load ptr, ptr %5, align 8
  %9 = call noundef ptr @_ZNKSt17basic_string_viewIcSt11char_traitsIcEE4dataEv(ptr noundef nonnull align 8 dereferenceable(16) %4) #3
  %10 = call noundef i64 @_ZNKSt17basic_string_viewIcSt11char_traitsIcEE4sizeEv(ptr noundef nonnull align 8 dereferenceable(16) %4) #3
  %11 = call noundef nonnull align 8 dereferenceable(8) ptr @_ZSt16__ostream_insertIcSt11char_traitsIcEERSt13basic_ostreamIT_T0_ES6_PKS3_l(ptr noundef nonnull align 8 dereferenceable(8) %8, ptr noundef %9, i64 noundef %10)
  ret ptr %11
}

; Function Attrs: mustprogress nounwind uwtable
define linkonce_odr noundef ptr @_ZN13sentencepiece7logging8BaseNameEPKc(ptr noundef %0) #5 comdat {
  %2 = alloca ptr, align 8
  %3 = alloca ptr, align 8
  %4 = alloca ptr, align 8
  store ptr %0, ptr %3, align 8
  %5 = load ptr, ptr %3, align 8
  %6 = call noundef ptr @strrchr(ptr noundef %5, i32 noundef 47) #17
  store ptr %6, ptr %4, align 8
  %7 = load ptr, ptr %4, align 8
  %8 = icmp eq ptr %7, null
  br i1 %8, label %9, label %11

9:                                                ; preds = %1
  %10 = load ptr, ptr %3, align 8
  store ptr %10, ptr %2, align 8
  br label %14

11:                                               ; preds = %1
  %12 = load ptr, ptr %4, align 8
  %13 = getelementptr inbounds i8, ptr %12, i64 1
  store ptr %13, ptr %2, align 8
  br label %14

14:                                               ; preds = %11, %9
  %15 = load ptr, ptr %2, align 8
  ret ptr %15
}

; Function Attrs: mustprogress nounwind uwtable
define linkonce_odr void @_ZN13sentencepiece5error3DieC2Eb(ptr noundef nonnull align 1 dereferenceable(1) %0, i1 noundef zeroext %1) unnamed_addr #5 comdat align 2 {
  %3 = alloca ptr, align 8
  %4 = alloca i8, align 1
  store ptr %0, ptr %3, align 8
  %5 = zext i1 %1 to i8
  store i8 %5, ptr %4, align 1
  %6 = load ptr, ptr %3, align 8
  %7 = getelementptr inbounds %"class.sentencepiece::error::Die", ptr %6, i32 0, i32 0
  %8 = load i8, ptr %4, align 1
  %9 = trunc i8 %8 to i1
  %10 = zext i1 %9 to i8
  store i8 %10, ptr %7, align 1
  ret void
}

; Function Attrs: mustprogress uwtable
define void @_ZN13sentencepiece10normalizer7Builder14BuildNFD_CFMapEPSt3mapISt6vectorIjSaIjEES5_St4lessIS5_ESaISt4pairIKS5_S5_EEE(ptr dead_on_unwind noalias writable sret(%"class.sentencepiece::util::Status") align 8 %0, ptr noundef %1) #4 align 2 personality ptr @__gxx_personality_v0 {
  %3 = alloca ptr, align 8
  %4 = alloca ptr, align 8
  %5 = alloca %"class.sentencepiece::error::Die", align 1
  %6 = alloca i1, align 1
  %7 = alloca ptr, align 8
  %8 = alloca i32, align 4
  %9 = alloca %"class.std::basic_string_view", align 8
  store ptr %0, ptr %3, align 8
  store ptr %1, ptr %4, align 8
  %10 = call noundef i32 @_ZN13sentencepiece7logging14GetMinLogLevelEv()
  %11 = icmp sgt i32 %10, 2
  store i1 false, ptr %6, align 1
  br i1 %11, label %12, label %13

12:                                               ; preds = %2
  br label %38

13:                                               ; preds = %2
  call void @_ZN13sentencepiece5error3DieC2Eb(ptr noundef nonnull align 1 dereferenceable(1) %5, i1 noundef zeroext false)
  store i1 true, ptr %6, align 1
  %14 = invoke noundef ptr @_ZN13sentencepiece7logging8BaseNameEPKc(ptr noundef @.str)
          to label %15 unwind label %42

15:                                               ; preds = %13
  %16 = invoke noundef nonnull align 8 dereferenceable(8) ptr @_ZStlsISt11char_traitsIcEERSt13basic_ostreamIcT_ES5_PKc(ptr noundef nonnull align 8 dereferenceable(8) @_ZSt4cerr, ptr noundef %14)
          to label %17 unwind label %42

17:                                               ; preds = %15
  %18 = invoke noundef nonnull align 8 dereferenceable(8) ptr @_ZStlsISt11char_traitsIcEERSt13basic_ostreamIcT_ES5_PKc(ptr noundef nonnull align 8 dereferenceable(8) %16, ptr noundef @.str.1)
          to label %19 unwind label %42

19:                                               ; preds = %17
  %20 = invoke noundef nonnull align 8 dereferenceable(8) ptr @_ZNSolsEi(ptr noundef nonnull align 8 dereferenceable(8) %18, i32 noundef 579)
          to label %21 unwind label %42

21:                                               ; preds = %19
  %22 = invoke noundef nonnull align 8 dereferenceable(8) ptr @_ZStlsISt11char_traitsIcEERSt13basic_ostreamIcT_ES5_PKc(ptr noundef nonnull align 8 dereferenceable(8) %20, ptr noundef @.str.6)
          to label %23 unwind label %42

23:                                               ; preds = %21
  %24 = invoke noundef nonnull align 8 dereferenceable(8) ptr @_ZStlsISt11char_traitsIcEERSt13basic_ostreamIcT_ES5_PKc(ptr noundef nonnull align 8 dereferenceable(8) %22, ptr noundef @.str.7)
          to label %25 unwind label %42

25:                                               ; preds = %23
  %26 = invoke noundef nonnull align 8 dereferenceable(8) ptr @_ZStlsISt11char_traitsIcEERSt13basic_ostreamIcT_ES5_PKc(ptr noundef nonnull align 8 dereferenceable(8) %24, ptr noundef @.str.22)
          to label %27 unwind label %42

27:                                               ; preds = %25
  %28 = invoke noundef nonnull align 8 dereferenceable(8) ptr @_ZStlsISt11char_traitsIcEERSt13basic_ostreamIcT_ES5_PKc(ptr noundef nonnull align 8 dereferenceable(8) %26, ptr noundef @.str.6)
          to label %29 unwind label %42

29:                                               ; preds = %27
  call void @llvm.memcpy.p0.p0.i64(ptr align 8 %9, ptr align 8 @_ZN13sentencepiece10normalizer12_GLOBAL__N_113kCompileErrorE, i64 16, i1 false)
  %30 = getelementptr inbounds { i64, ptr }, ptr %9, i32 0, i32 0
  %31 = load i64, ptr %30, align 8
  %32 = getelementptr inbounds { i64, ptr }, ptr %9, i32 0, i32 1
  %33 = load ptr, ptr %32, align 8
  %34 = invoke noundef nonnull align 8 dereferenceable(8) ptr @_ZStlsIcSt11char_traitsIcEERSt13basic_ostreamIT_T0_ES6_St17basic_string_viewIS3_S4_E(ptr noundef nonnull align 8 dereferenceable(8) %28, i64 %31, ptr %33)
          to label %35 unwind label %42

35:                                               ; preds = %29
  %36 = invoke noundef i32 @_ZN13sentencepiece5error3DieanERSo(ptr noundef nonnull align 1 dereferenceable(1) %5, ptr noundef nonnull align 8 dereferenceable(8) %34)
          to label %37 unwind label %42

37:                                               ; preds = %35
  br label %38

38:                                               ; preds = %37, %12
  %39 = load i1, ptr %6, align 1
  br i1 %39, label %40, label %41

40:                                               ; preds = %38
  call void @_ZN13sentencepiece5error3DieD2Ev(ptr noundef nonnull align 1 dereferenceable(1) %5) #3
  br label %41

41:                                               ; preds = %40, %38
  call void @_ZN13sentencepiece4util8OkStatusEv(ptr dead_on_unwind writable sret(%"class.sentencepiece::util::Status") align 8 %0)
  ret void

42:                                               ; preds = %35, %29, %27, %25, %23, %21, %19, %17, %15, %13
  %43 = landingpad { ptr, i32 }
          cleanup
  %44 = extractvalue { ptr, i32 } %43, 0
  store ptr %44, ptr %7, align 8
  %45 = extractvalue { ptr, i32 } %43, 1
  store i32 %45, ptr %8, align 4
  %46 = load i1, ptr %6, align 1
  br i1 %46, label %47, label %48

47:                                               ; preds = %42
  call void @_ZN13sentencepiece5error3DieD2Ev(ptr noundef nonnull align 1 dereferenceable(1) %5) #3
  br label %48

48:                                               ; preds = %47, %42
  br label %49

49:                                               ; preds = %48
  %50 = load ptr, ptr %7, align 8
  %51 = load i32, ptr %8, align 4
  %52 = insertvalue { ptr, i32 } poison, ptr %50, 0
  %53 = insertvalue { ptr, i32 } %52, i32 %51, 1
  resume { ptr, i32 } %53
}